; ModuleID = '39/57.c'
source_filename = "39/57.c"
target datalayout = "e-m:e-p270:32:32-p271:32:32-p272:64:64-i64:64-f80:128-n8:16:32:64-S128"
target triple = "x86_64-pc-linux-gnu"

%struct.student = type { [20 x i8], i32, i32, i32, i8, i8, i32 }

@.str = private unnamed_addr constant [3 x i8] c"%d\00", align 1
@.str.1 = private unnamed_addr constant [16 x i8] c"%s%d%d %c %c %d\00", align 1
@.str.2 = private unnamed_addr constant [10 x i8] c"%s\0A%d\0A%d\0A\00", align 1

; Function Attrs: noinline nounwind uwtable
define dso_local i32 @main() #0 {
  %1 = alloca i32, align 4
  %2 = alloca i32, align 4
  %3 = alloca i32, align 4
  %4 = alloca i32, align 4
  %5 = alloca %struct.student*, align 8
  %6 = alloca i32, align 4
  %7 = alloca i32, align 4
  store i32 0, i32* %1, align 4
  %8 = call i32 (i8*, ...) @__isoc99_scanf(i8* getelementptr inbounds ([3 x i8], [3 x i8]* @.str, i64 0, i64 0), i32* %3)
  %9 = load i32, i32* %3, align 4
  %10 = sext i32 %9 to i64
  %11 = mul i64 40, %10
  %12 = call noalias i8* @malloc(i64 %11) #3
  %13 = bitcast i8* %12 to %struct.student*
  store %struct.student* %13, %struct.student** %5, align 8
  store i32 0, i32* %6, align 4
  store i32 0, i32* %7, align 4
  store i32 0, i32* %2, align 4
  br label %14

14:                                               ; preds = %195, %0
  %15 = load i32, i32* %2, align 4
  %16 = load i32, i32* %3, align 4
  %17 = icmp slt i32 %15, %16
  br i1 %17, label %18, label %198

18:                                               ; preds = %14
  %19 = load %struct.student*, %struct.student** %5, align 8
  %20 = load i32, i32* %2, align 4
  %21 = sext i32 %20 to i64
  %22 = getelementptr inbounds %struct.student, %struct.student* %19, i64 %21
  %23 = getelementptr inbounds %struct.student, %struct.student* %22, i32 0, i32 6
  store i32 0, i32* %23, align 4
  %24 = load %struct.student*, %struct.student** %5, align 8
  %25 = load i32, i32* %2, align 4
  %26 = sext i32 %25 to i64
  %27 = getelementptr inbounds %struct.student, %struct.student* %24, i64 %26
  %28 = getelementptr inbounds %struct.student, %struct.student* %27, i32 0, i32 0
  %29 = getelementptr inbounds [20 x i8], [20 x i8]* %28, i64 0, i64 0
  %30 = load %struct.student*, %struct.student** %5, align 8
  %31 = load i32, i32* %2, align 4
  %32 = sext i32 %31 to i64
  %33 = getelementptr inbounds %struct.student, %struct.student* %30, i64 %32
  %34 = getelementptr inbounds %struct.student, %struct.student* %33, i32 0, i32 1
  %35 = load %struct.student*, %struct.student** %5, align 8
  %36 = load i32, i32* %2, align 4
  %37 = sext i32 %36 to i64
  %38 = getelementptr inbounds %struct.student, %struct.student* %35, i64 %37
  %39 = getelementptr inbounds %struct.student, %struct.student* %38, i32 0, i32 2
  %40 = load %struct.student*, %struct.student** %5, align 8
  %41 = load i32, i32* %2, align 4
  %42 = sext i32 %41 to i64
  %43 = getelementptr inbounds %struct.student, %struct.student* %40, i64 %42
  %44 = getelementptr inbounds %struct.student, %struct.student* %43, i32 0, i32 4
  %45 = load %struct.student*, %struct.student** %5, align 8
  %46 = load i32, i32* %2, align 4
  %47 = sext i32 %46 to i64
  %48 = getelementptr inbounds %struct.student, %struct.student* %45, i64 %47
  %49 = getelementptr inbounds %struct.student, %struct.student* %48, i32 0, i32 5
  %50 = load %struct.student*, %struct.student** %5, align 8
  %51 = load i32, i32* %2, align 4
  %52 = sext i32 %51 to i64
  %53 = getelementptr inbounds %struct.student, %struct.student* %50, i64 %52
  %54 = getelementptr inbounds %struct.student, %struct.student* %53, i32 0, i32 3
  %55 = call i32 (i8*, ...) @__isoc99_scanf(i8* getelementptr inbounds ([16 x i8], [16 x i8]* @.str.1, i64 0, i64 0), i8* %29, i32* %34, i32* %39, i8* %44, i8* %49, i32* %54)
  %56 = load %struct.student*, %struct.student** %5, align 8
  %57 = load i32, i32* %2, align 4
  %58 = sext i32 %57 to i64
  %59 = getelementptr inbounds %struct.student, %struct.student* %56, i64 %58
  %60 = getelementptr inbounds %struct.student, %struct.student* %59, i32 0, i32 1
  %61 = load i32, i32* %60, align 4
  %62 = icmp sgt i32 %61, 80
  br i1 %62, label %63, label %79

63:                                               ; preds = %18
  %64 = load %struct.student*, %struct.student** %5, align 8
  %65 = load i32, i32* %2, align 4
  %66 = sext i32 %65 to i64
  %67 = getelementptr inbounds %struct.student, %struct.student* %64, i64 %66
  %68 = getelementptr inbounds %struct.student, %struct.student* %67, i32 0, i32 3
  %69 = load i32, i32* %68, align 4
  %70 = icmp sge i32 %69, 1
  br i1 %70, label %71, label %79

71:                                               ; preds = %63
  %72 = load %struct.student*, %struct.student** %5, align 8
  %73 = load i32, i32* %2, align 4
  %74 = sext i32 %73 to i64
  %75 = getelementptr inbounds %struct.student, %struct.student* %72, i64 %74
  %76 = getelementptr inbounds %struct.student, %struct.student* %75, i32 0, i32 6
  %77 = load i32, i32* %76, align 4
  %78 = add nsw i32 %77, 8000
  store i32 %78, i32* %76, align 4
  br label %79

79:                                               ; preds = %71, %63, %18
  %80 = load %struct.student*, %struct.student** %5, align 8
  %81 = load i32, i32* %2, align 4
  %82 = sext i32 %81 to i64
  %83 = getelementptr inbounds %struct.student, %struct.student* %80, i64 %82
  %84 = getelementptr inbounds %struct.student, %struct.student* %83, i32 0, i32 1
  %85 = load i32, i32* %84, align 4
  %86 = icmp sgt i32 %85, 85
  br i1 %86, label %87, label %103

87:                                               ; preds = %79
  %88 = load %struct.student*, %struct.student** %5, align 8
  %89 = load i32, i32* %2, align 4
  %90 = sext i32 %89 to i64
  %91 = getelementptr inbounds %struct.student, %struct.student* %88, i64 %90
  %92 = getelementptr inbounds %struct.student, %struct.student* %91, i32 0, i32 2
  %93 = load i32, i32* %92, align 4
  %94 = icmp sgt i32 %93, 80
  br i1 %94, label %95, label %103

95:                                               ; preds = %87
  %96 = load %struct.student*, %struct.student** %5, align 8
  %97 = load i32, i32* %2, align 4
  %98 = sext i32 %97 to i64
  %99 = getelementptr inbounds %struct.student, %struct.student* %96, i64 %98
  %100 = getelementptr inbounds %struct.student, %struct.student* %99, i32 0, i32 6
  %101 = load i32, i32* %100, align 4
  %102 = add nsw i32 %101, 4000
  store i32 %102, i32* %100, align 4
  br label %103

103:                                              ; preds = %95, %87, %79
  %104 = load %struct.student*, %struct.student** %5, align 8
  %105 = load i32, i32* %2, align 4
  %106 = sext i32 %105 to i64
  %107 = getelementptr inbounds %struct.student, %struct.student* %104, i64 %106
  %108 = getelementptr inbounds %struct.student, %struct.student* %107, i32 0, i32 1
  %109 = load i32, i32* %108, align 4
  %110 = icmp sgt i32 %109, 90
  br i1 %110, label %111, label %119

111:                                              ; preds = %103
  %112 = load %struct.student*, %struct.student** %5, align 8
  %113 = load i32, i32* %2, align 4
  %114 = sext i32 %113 to i64
  %115 = getelementptr inbounds %struct.student, %struct.student* %112, i64 %114
  %116 = getelementptr inbounds %struct.student, %struct.student* %115, i32 0, i32 6
  %117 = load i32, i32* %116, align 4
  %118 = add nsw i32 %117, 2000
  store i32 %118, i32* %116, align 4
  br label %119

119:                                              ; preds = %111, %103
  %120 = load %struct.student*, %struct.student** %5, align 8
  %121 = load i32, i32* %2, align 4
  %122 = sext i32 %121 to i64
  %123 = getelementptr inbounds %struct.student, %struct.student* %120, i64 %122
  %124 = getelementptr inbounds %struct.student, %struct.student* %123, i32 0, i32 1
  %125 = load i32, i32* %124, align 4
  %126 = icmp sgt i32 %125, 85
  br i1 %126, label %127, label %144

127:                                              ; preds = %119
  %128 = load %struct.student*, %struct.student** %5, align 8
  %129 = load i32, i32* %2, align 4
  %130 = sext i32 %129 to i64
  %131 = getelementptr inbounds %struct.student, %struct.student* %128, i64 %130
  %132 = getelementptr inbounds %struct.student, %struct.student* %131, i32 0, i32 5
  %133 = load i8, i8* %132, align 1
  %134 = sext i8 %133 to i32
  %135 = icmp eq i32 %134, 89
  br i1 %135, label %136, label %144

136:                                              ; preds = %127
  %137 = load %struct.student*, %struct.student** %5, align 8
  %138 = load i32, i32* %2, align 4
  %139 = sext i32 %138 to i64
  %140 = getelementptr inbounds %struct.student, %struct.student* %137, i64 %139
  %141 = getelementptr inbounds %struct.student, %struct.student* %140, i32 0, i32 6
  %142 = load i32, i32* %141, align 4
  %143 = add nsw i32 %142, 1000
  store i32 %143, i32* %141, align 4
  br label %144

144:                                              ; preds = %136, %127, %119
  %145 = load %struct.student*, %struct.student** %5, align 8
  %146 = load i32, i32* %2, align 4
  %147 = sext i32 %146 to i64
  %148 = getelementptr inbounds %struct.student, %struct.student* %145, i64 %147
  %149 = getelementptr inbounds %struct.student, %struct.student* %148, i32 0, i32 2
  %150 = load i32, i32* %149, align 4
  %151 = icmp sgt i32 %150, 80
  br i1 %151, label %152, label %169

152:                                              ; preds = %144
  %153 = load %struct.student*, %struct.student** %5, align 8
  %154 = load i32, i32* %2, align 4
  %155 = sext i32 %154 to i64
  %156 = getelementptr inbounds %struct.student, %struct.student* %153, i64 %155
  %157 = getelementptr inbounds %struct.student, %struct.student* %156, i32 0, i32 4
  %158 = load i8, i8* %157, align 4
  %159 = sext i8 %158 to i32
  %160 = icmp eq i32 %159, 89
  br i1 %160, label %161, label %169

161:                                              ; preds = %152
  %162 = load %struct.student*, %struct.student** %5, align 8
  %163 = load i32, i32* %2, align 4
  %164 = sext i32 %163 to i64
  %165 = getelementptr inbounds %struct.student, %struct.student* %162, i64 %164
  %166 = getelementptr inbounds %struct.student, %struct.student* %165, i32 0, i32 6
  %167 = load i32, i32* %166, align 4
  %168 = add nsw i32 %167, 850
  store i32 %168, i32* %166, align 4
  br label %169

169:                                              ; preds = %161, %152, %144
  %170 = load %struct.student*, %struct.student** %5, align 8
  %171 = load i32, i32* %2, align 4
  %172 = sext i32 %171 to i64
  %173 = getelementptr inbounds %struct.student, %struct.student* %170, i64 %172
  %174 = getelementptr inbounds %struct.student, %struct.student* %173, i32 0, i32 6
  %175 = load i32, i32* %174, align 4
  %176 = load i32, i32* %6, align 4
  %177 = icmp sgt i32 %175, %176
  br i1 %177, label %178, label %186

178:                                              ; preds = %169
  %179 = load %struct.student*, %struct.student** %5, align 8
  %180 = load i32, i32* %2, align 4
  %181 = sext i32 %180 to i64
  %182 = getelementptr inbounds %struct.student, %struct.student* %179, i64 %181
  %183 = getelementptr inbounds %struct.student, %struct.student* %182, i32 0, i32 6
  %184 = load i32, i32* %183, align 4
  store i32 %184, i32* %6, align 4
  %185 = load i32, i32* %2, align 4
  store i32 %185, i32* %4, align 4
  br label %186

186:                                              ; preds = %178, %169
  %187 = load %struct.student*, %struct.student** %5, align 8
  %188 = load i32, i32* %2, align 4
  %189 = sext i32 %188 to i64
  %190 = getelementptr inbounds %struct.student, %struct.student* %187, i64 %189
  %191 = getelementptr inbounds %struct.student, %struct.student* %190, i32 0, i32 6
  %192 = load i32, i32* %191, align 4
  %193 = load i32, i32* %7, align 4
  %194 = add nsw i32 %193, %192
  store i32 %194, i32* %7, align 4
  br label %195

195:                                              ; preds = %186
  %196 = load i32, i32* %2, align 4
  %197 = add nsw i32 %196, 1
  store i32 %197, i32* %2, align 4
  br label %14

198:                                              ; preds = %14
  %199 = load %struct.student*, %struct.student** %5, align 8
  %200 = load i32, i32* %4, align 4
  %201 = sext i32 %200 to i64
  %202 = getelementptr inbounds %struct.student, %struct.student* %199, i64 %201
  %203 = getelementptr inbounds %struct.student, %struct.student* %202, i32 0, i32 0
  %204 = getelementptr inbounds [20 x i8], [20 x i8]* %203, i64 0, i64 0
  %205 = load %struct.student*, %struct.student** %5, align 8
  %206 = load i32, i32* %4, align 4
  %207 = sext i32 %206 to i64
  %208 = getelementptr inbounds %struct.student, %struct.student* %205, i64 %207
  %209 = getelementptr inbounds %struct.student, %struct.student* %208, i32 0, i32 6
  %210 = load i32, i32* %209, align 4
  %211 = load i32, i32* %7, align 4
  %212 = call i32 (i8*, ...) @printf(i8* getelementptr inbounds ([10 x i8], [10 x i8]* @.str.2, i64 0, i64 0), i8* %204, i32 %210, i32 %211)
  ret i32 0
}

declare dso_local i32 @__isoc99_scanf(i8*, ...) #1

; Function Attrs: nounwind
declare dso_local noalias i8* @malloc(i64) #2

declare dso_local i32 @printf(i8*, ...) #1


!llvm.module.flags = !{!0}
!llvm.ident = !{!1}

!0 = !{i32 1, !"wchar_size", i32 4}
!1 = !{!"clang version 10.0.0-4ubuntu1 "}
