; ModuleID = 'source-C-CXX/38/57.c'
source_filename = "source-C-CXX/38/57.c"
target datalayout = "e-m:e-p270:32:32-p271:32:32-p272:64:64-i64:64-f80:128-n8:16:32:64-S128"
target triple = "x86_64-pc-linux-gnu"

%struct.student = type { [20 x i8], i32, i32, i32, i8, i8, i32 }

@.str = private unnamed_addr constant [3 x i8] c"%d\00", align 1
@.str.1 = private unnamed_addr constant [16 x i8] c"%s%d%d %c %c %d\00", align 1
@.str.2 = private unnamed_addr constant [10 x i8] c"%s\0A%d\0A%d\0A\00", align 1

; Function Attrs: nofree nounwind sspstrong uwtable
define dso_local i32 @main() local_unnamed_addr #0 {
  %1 = alloca i32, align 4
  %2 = bitcast i32* %1 to i8*
  call void @llvm.lifetime.start.p0i8(i64 4, i8* nonnull %2) #4
  %3 = call i32 (i8*, ...) @__isoc99_scanf(i8* getelementptr inbounds ([3 x i8], [3 x i8]* @.str, i64 0, i64 0), i32* nonnull %1)
  %4 = load i32, i32* %1, align 4, !tbaa !5
  %5 = sext i32 %4 to i64
  %6 = mul nsw i64 %5, 40
  %7 = call noalias align 16 i8* @malloc(i64 %6) #4
  %8 = bitcast i8* %7 to %struct.student*
  %9 = icmp sgt i32 %4, 0
  br i1 %9, label %10, label %72

10:                                               ; preds = %0, %59
  %11 = phi i64 [ %66, %59 ], [ 0, %0 ]
  %12 = phi i32 [ %65, %59 ], [ 0, %0 ]
  %13 = phi i32 [ %64, %59 ], [ 0, %0 ]
  %14 = phi i32 [ %63, %59 ], [ undef, %0 ]
  %15 = getelementptr inbounds %struct.student, %struct.student* %8, i64 %11, i32 6
  store i32 0, i32* %15, align 4, !tbaa !9
  %16 = getelementptr inbounds %struct.student, %struct.student* %8, i64 %11, i32 0, i64 0
  %17 = getelementptr inbounds %struct.student, %struct.student* %8, i64 %11, i32 1
  %18 = getelementptr inbounds %struct.student, %struct.student* %8, i64 %11, i32 2
  %19 = getelementptr inbounds %struct.student, %struct.student* %8, i64 %11, i32 4
  %20 = getelementptr inbounds %struct.student, %struct.student* %8, i64 %11, i32 5
  %21 = getelementptr inbounds %struct.student, %struct.student* %8, i64 %11, i32 3
  %22 = call i32 (i8*, ...) @__isoc99_scanf(i8* getelementptr inbounds ([16 x i8], [16 x i8]* @.str.1, i64 0, i64 0), i8* %16, i32* nonnull %17, i32* nonnull %18, i8* nonnull %19, i8* nonnull %20, i32* nonnull %21)
  %23 = load i32, i32* %17, align 4, !tbaa !11
  %24 = icmp sgt i32 %23, 80
  br i1 %24, label %25, label %50

25:                                               ; preds = %10
  %26 = load i32, i32* %21, align 4, !tbaa !12
  %27 = icmp sgt i32 %26, 0
  br i1 %27, label %28, label %31

28:                                               ; preds = %25
  %29 = load i32, i32* %15, align 4, !tbaa !9
  %30 = add nsw i32 %29, 8000
  store i32 %30, i32* %15, align 4, !tbaa !9
  br label %31

31:                                               ; preds = %28, %25
  %32 = icmp sgt i32 %23, 85
  br i1 %32, label %33, label %50

33:                                               ; preds = %31
  %34 = load i32, i32* %18, align 8, !tbaa !13
  %35 = icmp sgt i32 %34, 80
  br i1 %35, label %36, label %39

36:                                               ; preds = %33
  %37 = load i32, i32* %15, align 4, !tbaa !9
  %38 = add nsw i32 %37, 4000
  store i32 %38, i32* %15, align 4, !tbaa !9
  br label %39

39:                                               ; preds = %36, %33
  %40 = icmp sgt i32 %23, 90
  br i1 %40, label %41, label %44

41:                                               ; preds = %39
  %42 = load i32, i32* %15, align 4, !tbaa !9
  %43 = add nsw i32 %42, 2000
  store i32 %43, i32* %15, align 4, !tbaa !9
  br label %44

44:                                               ; preds = %41, %39
  %45 = load i8, i8* %20, align 1, !tbaa !14
  %46 = icmp eq i8 %45, 89
  br i1 %46, label %47, label %50

47:                                               ; preds = %44
  %48 = load i32, i32* %15, align 4, !tbaa !9
  %49 = add nsw i32 %48, 1000
  store i32 %49, i32* %15, align 4, !tbaa !9
  br label %50

50:                                               ; preds = %31, %10, %47, %44
  %51 = load i32, i32* %18, align 8, !tbaa !13
  %52 = icmp sgt i32 %51, 80
  br i1 %52, label %53, label %59

53:                                               ; preds = %50
  %54 = load i8, i8* %19, align 8, !tbaa !15
  %55 = icmp eq i8 %54, 89
  br i1 %55, label %56, label %59

56:                                               ; preds = %53
  %57 = load i32, i32* %15, align 4, !tbaa !9
  %58 = add nsw i32 %57, 850
  store i32 %58, i32* %15, align 4, !tbaa !9
  br label %59

59:                                               ; preds = %56, %53, %50
  %60 = load i32, i32* %15, align 4, !tbaa !9
  %61 = icmp sgt i32 %60, %13
  %62 = trunc i64 %11 to i32
  %63 = select i1 %61, i32 %62, i32 %14
  %64 = select i1 %61, i32 %60, i32 %13
  %65 = add nsw i32 %60, %12
  %66 = add nuw nsw i64 %11, 1
  %67 = load i32, i32* %1, align 4, !tbaa !5
  %68 = sext i32 %67 to i64
  %69 = icmp slt i64 %66, %68
  br i1 %69, label %10, label %70, !llvm.loop !16

70:                                               ; preds = %59
  %71 = sext i32 %63 to i64
  br label %72

72:                                               ; preds = %70, %0
  %73 = phi i64 [ 0, %0 ], [ %71, %70 ]
  %74 = phi i32 [ 0, %0 ], [ %65, %70 ]
  %75 = getelementptr inbounds %struct.student, %struct.student* %8, i64 %73, i32 0, i64 0
  %76 = getelementptr inbounds %struct.student, %struct.student* %8, i64 %73, i32 6
  %77 = load i32, i32* %76, align 4, !tbaa !9
  %78 = call i32 (i8*, ...) @printf(i8* nonnull dereferenceable(1) getelementptr inbounds ([10 x i8], [10 x i8]* @.str.2, i64 0, i64 0), i8* %75, i32 %77, i32 %74)
  call void @llvm.lifetime.end.p0i8(i64 4, i8* nonnull %2) #4
  ret i32 0
}

; Function Attrs: argmemonly mustprogress nofree nosync nounwind willreturn
declare void @llvm.lifetime.start.p0i8(i64 immarg, i8* nocapture) #1

; Function Attrs: nofree nounwind
declare noundef i32 @__isoc99_scanf(i8* nocapture noundef readonly, ...) local_unnamed_addr #2

; Function Attrs: inaccessiblememonly mustprogress nofree nounwind willreturn
declare noalias noundef align 16 i8* @malloc(i64 noundef) local_unnamed_addr #3

; Function Attrs: nofree nounwind
declare noundef i32 @printf(i8* nocapture noundef readonly, ...) local_unnamed_addr #2

; Function Attrs: argmemonly mustprogress nofree nosync nounwind willreturn
declare void @llvm.lifetime.end.p0i8(i64 immarg, i8* nocapture) #1


!llvm.module.flags = !{!0, !1, !2, !3}
!llvm.ident = !{!4}

!0 = !{i32 1, !"wchar_size", i32 4}
!1 = !{i32 7, !"PIC Level", i32 2}
!2 = !{i32 7, !"PIE Level", i32 2}
!3 = !{i32 7, !"uwtable", i32 1}
!4 = !{!"clang version 13.0.0"}
!5 = !{!6, !6, i64 0}
!6 = !{!"int", !7, i64 0}
!7 = !{!"omnipotent char", !8, i64 0}
!8 = !{!"Simple C/C++ TBAA"}
!9 = !{!10, !6, i64 36}
!10 = !{!"student", !7, i64 0, !6, i64 20, !6, i64 24, !6, i64 28, !7, i64 32, !7, i64 33, !6, i64 36}
!11 = !{!10, !6, i64 20}
!12 = !{!10, !6, i64 28}
!13 = !{!10, !6, i64 24}
!14 = !{!10, !7, i64 33}
!15 = !{!10, !7, i64 32}
!16 = distinct !{!16, !17}
!17 = !{!"llvm.loop.mustprogress"}
